target datalayout = "e-m:e-p270:32:32-p271:32:32-p272:64:64-i64:64-i128:128-f80:128-n8:16:32:64-S128"
target triple = "x86_64-pc-linux-gnu"

%struct.H5O_loc_t = type { ptr, i64, i8 }
%struct.H5_obj_t = type { i64, i64 }
%struct.H5O_copy_t = type { i8, i8, i8, i8, i8, i8, i8, ptr, i32, i32, ptr, ptr, i8, ptr, ptr, ptr, ptr, ptr, i64 }
%struct.H5O_addr_map_t = type { %struct.H5_obj_t, i64, i8, i64, ptr, ptr }
%struct.H5O_obj_class_t = type { i32, ptr, ptr, ptr, ptr, ptr, ptr, ptr, ptr, ptr }

@H5O_init_g = external global i8, align 1
@H5_libterm_g = external global i8, align 1
@.str.3 = private unnamed_addr constant [101 x i8] c"generated/home/dtcxzyw/WorkSpace/Projects/compilers/llvm-opt-benchmark/bench/hdf5/hdf5/src/H5Ocopy.c\00", align 1
@H5E_OHDR_g = external global i64, align 8
@H5E_CANTCOPY_g = external global i64, align 8
@.str.8 = private unnamed_addr constant [22 x i8] c"unable to copy object\00", align 1
@__func__.H5O_copy_header_map = private unnamed_addr constant [20 x i8] c"H5O_copy_header_map\00", align 1
@H5E_FUNC_g = external global i64, align 8
@H5E_CANTINIT_g = external global i64, align 8
@.str.11 = private unnamed_addr constant [32 x i8] c"interface initialization failed\00", align 1
@.str.12 = private unnamed_addr constant [38 x i8] c"unable to increment object link count\00", align 1

; Function Attrs: nounwind uwtable
define i32 @H5O_copy_header_map(ptr noundef %0, ptr noundef %1, ptr noundef %2, i1 noundef zeroext %3, ptr noundef %4, ptr noundef %5) #0 {
  %7 = alloca ptr, align 8
  %8 = alloca ptr, align 8
  %9 = alloca ptr, align 8
  %10 = alloca i8, align 1
  %11 = alloca ptr, align 8
  %12 = alloca ptr, align 8
  %13 = alloca ptr, align 8
  %14 = alloca %struct.H5_obj_t, align 8
  %15 = alloca i8, align 1
  %16 = alloca i32, align 4
  %17 = alloca i8, align 1
  store ptr %0, ptr %7, align 8, !tbaa !27
  store ptr %1, ptr %8, align 8, !tbaa !27
  store ptr %2, ptr %9, align 8, !tbaa !28
  %18 = zext i1 %3 to i8
  store i8 %18, ptr %10, align 1, !tbaa !12
  store ptr %4, ptr %11, align 8, !tbaa !30
  store ptr %5, ptr %12, align 8, !tbaa !30
  call void @llvm.lifetime.start.p0(i64 8, ptr %13) #8
  store ptr null, ptr %13, align 8, !tbaa !31
  call void @llvm.lifetime.start.p0(i64 16, ptr %14) #8
  call void @llvm.lifetime.start.p0(i64 1, ptr %15) #8
  call void @llvm.lifetime.start.p0(i64 4, ptr %16) #8
  store i32 0, ptr %16, align 4, !tbaa !14
  call void @llvm.lifetime.start.p0(i64 1, ptr %17) #8
  store i8 0, ptr %17, align 1, !tbaa !12
  %19 = load i8, ptr @H5O_init_g, align 1, !tbaa !12, !range !16, !noundef !17
  %20 = trunc i8 %19 to i1
  br i1 %20, label %25, label %21

21:                                               ; preds = %6
  %22 = load i8, ptr @H5_libterm_g, align 1, !tbaa !12, !range !16, !noundef !17
  %23 = trunc i8 %22 to i1
  %24 = xor i1 %23, true
  br label %25

25:                                               ; preds = %21, %6
  %26 = phi i1 [ false, %6 ], [ %24, %21 ]
  %27 = xor i1 %26, true
  %28 = xor i1 %27, true
  %29 = zext i1 %28 to i32
  %30 = sext i32 %29 to i64
  %31 = call i64 @llvm.expect.i64(i64 %30, i64 0)
  %32 = icmp ne i64 %31, 0
  br i1 %32, label %33, label %56

33:                                               ; preds = %25
  store i8 1, ptr @H5O_init_g, align 1, !tbaa !12
  %34 = call i32 @H5O__init_package()
  %35 = icmp slt i32 %34, 0
  br i1 %35, label %36, label %55

36:                                               ; preds = %33
  store i8 0, ptr @H5O_init_g, align 1, !tbaa !12
  br label %37

37:                                               ; preds = %36
  br label %38

38:                                               ; preds = %37
  br label %39

39:                                               ; preds = %38
  %40 = load i64, ptr @H5E_FUNC_g, align 8, !tbaa !10
  %41 = load i64, ptr @H5E_CANTINIT_g, align 8, !tbaa !10
  %42 = call i32 (ptr, ptr, i32, i64, i64, ptr, ...) @H5E_printf_stack(ptr noundef @.str.3, ptr noundef @__func__.H5O_copy_header_map, i32 noundef 811, i64 noundef %40, i64 noundef %41, ptr noundef @.str.11)
  br label %43

43:                                               ; preds = %39
  br label %44

44:                                               ; preds = %43
  store i8 1, ptr %17, align 1, !tbaa !12
  %45 = load i8, ptr %17, align 1, !tbaa !12, !range !16, !noundef !17
  %46 = trunc i8 %45 to i1
  %47 = zext i1 %46 to i8
  store i8 %47, ptr %17, align 1, !tbaa !12
  br label %48

48:                                               ; preds = %44
  br label %49

49:                                               ; preds = %48
  br label %50

50:                                               ; preds = %49
  store i32 -1, ptr %16, align 4, !tbaa !14
  br label %192

51:                                               ; No predecessors!
  br label %52

52:                                               ; preds = %51
  br label %53

53:                                               ; preds = %52
  br label %54

54:                                               ; preds = %53
  br label %55

55:                                               ; preds = %54, %33
  br label %56

56:                                               ; preds = %55, %25
  %57 = load i8, ptr @H5O_init_g, align 1, !tbaa !12, !range !16, !noundef !17
  %58 = trunc i8 %57 to i1
  br i1 %58, label %63, label %59

59:                                               ; preds = %56
  %60 = load i8, ptr @H5_libterm_g, align 1, !tbaa !12, !range !16, !noundef !17
  %61 = trunc i8 %60 to i1
  %62 = xor i1 %61, true
  br label %63

63:                                               ; preds = %59, %56
  %64 = phi i1 [ true, %56 ], [ %62, %59 ]
  %65 = xor i1 %64, true
  %66 = xor i1 %65, true
  %67 = zext i1 %66 to i32
  %68 = sext i32 %67 to i64
  %69 = call i64 @llvm.expect.i64(i64 %68, i64 1)
  %70 = icmp ne i64 %69, 0
  br i1 %70, label %71, label %193

71:                                               ; preds = %63
  %72 = load ptr, ptr %7, align 8, !tbaa !27
  %73 = getelementptr inbounds nuw %struct.H5O_loc_t, ptr %72, i32 0, i32 0
  %74 = load ptr, ptr %73, align 8, !tbaa !23
  %75 = getelementptr inbounds nuw %struct.H5_obj_t, ptr %14, i32 0, i32 0
  %76 = call i32 @H5F_get_fileno(ptr noundef %74, ptr noundef %75)
  %77 = load ptr, ptr %7, align 8, !tbaa !27
  %78 = getelementptr inbounds nuw %struct.H5O_loc_t, ptr %77, i32 0, i32 1
  %79 = load i64, ptr %78, align 8, !tbaa !33
  %80 = getelementptr inbounds nuw %struct.H5_obj_t, ptr %14, i32 0, i32 1
  store i64 %79, ptr %80, align 8, !tbaa !34
  %81 = load ptr, ptr %9, align 8, !tbaa !28
  %82 = getelementptr inbounds nuw %struct.H5O_copy_t, ptr %81, i32 0, i32 10
  %83 = load ptr, ptr %82, align 8, !tbaa !36
  %84 = call ptr @H5SL_search(ptr noundef %83, ptr noundef %14)
  store ptr %84, ptr %13, align 8, !tbaa !31
  %85 = load ptr, ptr %13, align 8, !tbaa !31
  %86 = icmp eq ptr %85, null
  br i1 %86, label %87, label %133

87:                                               ; preds = %71
  %88 = load i8, ptr %10, align 1, !tbaa !12, !range !16, !noundef !17
  %89 = trunc i8 %88 to i1
  br i1 %89, label %90, label %95

90:                                               ; preds = %87
  %91 = load ptr, ptr %9, align 8, !tbaa !28
  %92 = getelementptr inbounds nuw %struct.H5O_copy_t, ptr %91, i32 0, i32 8
  %93 = load i32, ptr %92, align 8, !tbaa !41
  %94 = add nsw i32 %93, 1
  store i32 %94, ptr %92, align 8, !tbaa !41
  br label %95

95:                                               ; preds = %90, %87
  %96 = load ptr, ptr %7, align 8, !tbaa !27
  %97 = load ptr, ptr %8, align 8, !tbaa !27
  %98 = load ptr, ptr %9, align 8, !tbaa !28
  %99 = load ptr, ptr %11, align 8, !tbaa !30
  %100 = load ptr, ptr %12, align 8, !tbaa !30
  %101 = call i32 @H5O__copy_header_real(ptr noundef %96, ptr noundef %97, ptr noundef %98, ptr noundef %99, ptr noundef %100)
  %102 = icmp slt i32 %101, 0
  br i1 %102, label %103, label %122

103:                                              ; preds = %95
  br label %104

104:                                              ; preds = %103
  br label %105

105:                                              ; preds = %104
  br label %106

106:                                              ; preds = %105
  %107 = load i64, ptr @H5E_OHDR_g, align 8, !tbaa !10
  %108 = load i64, ptr @H5E_CANTCOPY_g, align 8, !tbaa !10
  %109 = call i32 (ptr, ptr, i32, i64, i64, ptr, ...) @H5E_printf_stack(ptr noundef @.str.3, ptr noundef @__func__.H5O_copy_header_map, i32 noundef 838, i64 noundef %107, i64 noundef %108, ptr noundef @.str.8)
  br label %110

110:                                              ; preds = %106
  br label %111

111:                                              ; preds = %110
  store i8 1, ptr %17, align 1, !tbaa !12
  %112 = load i8, ptr %17, align 1, !tbaa !12, !range !16, !noundef !17
  %113 = trunc i8 %112 to i1
  %114 = zext i1 %113 to i8
  store i8 %114, ptr %17, align 1, !tbaa !12
  br label %115

115:                                              ; preds = %111
  br label %116

116:                                              ; preds = %115
  br label %117

117:                                              ; preds = %116
  store i32 -1, ptr %16, align 4, !tbaa !14
  br label %192

118:                                              ; No predecessors!
  br label %119

119:                                              ; preds = %118
  br label %120

120:                                              ; preds = %119
  br label %121

121:                                              ; preds = %120
  br label %122

122:                                              ; preds = %121, %95
  %123 = load i8, ptr %10, align 1, !tbaa !12, !range !16, !noundef !17
  %124 = trunc i8 %123 to i1
  br i1 %124, label %125, label %130

125:                                              ; preds = %122
  %126 = load ptr, ptr %9, align 8, !tbaa !28
  %127 = getelementptr inbounds nuw %struct.H5O_copy_t, ptr %126, i32 0, i32 8
  %128 = load i32, ptr %127, align 8, !tbaa !41
  %129 = add nsw i32 %128, -1
  store i32 %129, ptr %127, align 8, !tbaa !41
  br label %130

130:                                              ; preds = %125, %122
  store i8 1, ptr %15, align 1, !tbaa !12
  %131 = load i32, ptr %16, align 4, !tbaa !14
  %132 = add nsw i32 %131, 1
  store i32 %132, ptr %16, align 4, !tbaa !14
  br label %164

133:                                              ; preds = %71
  %134 = load ptr, ptr %13, align 8, !tbaa !31
  %135 = getelementptr inbounds nuw %struct.H5O_addr_map_t, ptr %134, i32 0, i32 1
  %136 = load i64, ptr %135, align 8, !tbaa !42
  %137 = load ptr, ptr %8, align 8, !tbaa !27
  %138 = getelementptr inbounds nuw %struct.H5O_loc_t, ptr %137, i32 0, i32 1
  store i64 %136, ptr %138, align 8, !tbaa !33
  %139 = load ptr, ptr %11, align 8, !tbaa !30
  %140 = icmp ne ptr %139, null
  br i1 %140, label %141, label %152

141:                                              ; preds = %133
  %142 = load ptr, ptr %13, align 8, !tbaa !31
  %143 = getelementptr inbounds nuw %struct.H5O_addr_map_t, ptr %142, i32 0, i32 4
  %144 = load ptr, ptr %143, align 8, !tbaa !45
  %145 = getelementptr inbounds nuw %struct.H5O_obj_class_t, ptr %144, i32 0, i32 0
  %146 = load i32, ptr %145, align 8, !tbaa !46
  %147 = load ptr, ptr %11, align 8, !tbaa !30
  store i32 %146, ptr %147, align 4, !tbaa !14
  %148 = load ptr, ptr %13, align 8, !tbaa !31
  %149 = getelementptr inbounds nuw %struct.H5O_addr_map_t, ptr %148, i32 0, i32 5
  %150 = load ptr, ptr %149, align 8, !tbaa !48
  %151 = load ptr, ptr %12, align 8, !tbaa !30
  store ptr %150, ptr %151, align 8, !tbaa !30
  br label %152

152:                                              ; preds = %141, %133
  %153 = load ptr, ptr %13, align 8, !tbaa !31
  %154 = getelementptr inbounds nuw %struct.H5O_addr_map_t, ptr %153, i32 0, i32 2
  %155 = load i8, ptr %154, align 8, !tbaa !49, !range !16, !noundef !17
  %156 = trunc i8 %155 to i1
  br i1 %156, label %157, label %162

157:                                              ; preds = %152
  %158 = load ptr, ptr %13, align 8, !tbaa !31
  %159 = getelementptr inbounds nuw %struct.H5O_addr_map_t, ptr %158, i32 0, i32 3
  %160 = load i64, ptr %159, align 8, !tbaa !50
  %161 = add i64 %160, 1
  store i64 %161, ptr %159, align 8, !tbaa !50
  store i8 0, ptr %15, align 1, !tbaa !12
  br label %163

162:                                              ; preds = %152
  store i8 1, ptr %15, align 1, !tbaa !12
  br label %163

163:                                              ; preds = %162, %157
  br label %164

164:                                              ; preds = %163, %130
  %165 = load i8, ptr %15, align 1, !tbaa !12, !range !16, !noundef !17
  %166 = trunc i8 %165 to i1
  br i1 %166, label %167, label %191

167:                                              ; preds = %164
  %168 = load ptr, ptr %8, align 8, !tbaa !27
  %169 = call i32 @H5O_link(ptr noundef %168, i32 noundef 1)
  %170 = icmp slt i32 %169, 0
  br i1 %170, label %171, label %190

171:                                              ; preds = %167
  br label %172

172:                                              ; preds = %171
  br label %173

173:                                              ; preds = %172
  br label %174

174:                                              ; preds = %173
  %175 = load i64, ptr @H5E_OHDR_g, align 8, !tbaa !10
  %176 = load i64, ptr @H5E_CANTINIT_g, align 8, !tbaa !10
  %177 = call i32 (ptr, ptr, i32, i64, i64, ptr, ...) @H5E_printf_stack(ptr noundef @.str.3, ptr noundef @__func__.H5O_copy_header_map, i32 noundef 877, i64 noundef %175, i64 noundef %176, ptr noundef @.str.12)
  br label %178

178:                                              ; preds = %174
  br label %179

179:                                              ; preds = %178
  store i8 1, ptr %17, align 1, !tbaa !12
  %180 = load i8, ptr %17, align 1, !tbaa !12, !range !16, !noundef !17
  %181 = trunc i8 %180 to i1
  %182 = zext i1 %181 to i8
  store i8 %182, ptr %17, align 1, !tbaa !12
  br label %183

183:                                              ; preds = %179
  br label %184

184:                                              ; preds = %183
  br label %185

185:                                              ; preds = %184
  store i32 -1, ptr %16, align 4, !tbaa !14
  br label %192

186:                                              ; No predecessors!
  br label %187

187:                                              ; preds = %186
  br label %188

188:                                              ; preds = %187
  br label %189

189:                                              ; preds = %188
  br label %190

190:                                              ; preds = %189, %167
  br label %191

191:                                              ; preds = %190, %164
  br label %192

192:                                              ; preds = %191, %185, %117, %50
  br label %193

193:                                              ; preds = %192, %63
  %194 = load i32, ptr %16, align 4, !tbaa !14
  call void @llvm.lifetime.end.p0(i64 1, ptr %17) #8
  call void @llvm.lifetime.end.p0(i64 4, ptr %16) #8
  call void @llvm.lifetime.end.p0(i64 1, ptr %15) #8
  call void @llvm.lifetime.end.p0(i64 16, ptr %14) #8
  call void @llvm.lifetime.end.p0(i64 8, ptr %13) #8
  ret i32 %194
}