; Function Attrs: nounwind uwtable
define range(i32 -1, 2) i32 @H5O_copy_header_map(ptr noundef %0, ptr noundef %1, ptr noundef %2, i1 noundef zeroext %3, ptr noundef captures(address_is_null) %4, ptr noundef writeonly captures(none) %5) local_unnamed_addr #0 {
  %7 = alloca %struct.H5_obj_t, align 8
  call void @llvm.lifetime.start.p0(i64 16, ptr nonnull %7) #7
  %8 = load i8, ptr @H5O_init_g, align 1, !tbaa !3, !range !7, !noundef !8
  %9 = trunc nuw i8 %8 to i1
  %10 = load i8, ptr @H5_libterm_g, align 1, !range !7
  %11 = trunc nuw i8 %10 to i1
  %12 = select i1 %9, i1 true, i1 %11
  br i1 %12, label %20, label %13, !prof !9

13:                                               ; preds = %6
  store i8 1, ptr @H5O_init_g, align 1, !tbaa !3
  %14 = tail call i32 @H5O__init_package() #7
  %15 = icmp slt i32 %14, 0
  br i1 %15, label %16, label %._crit_edge

._crit_edge:                                      ; preds = %13
  %.pre = load i8, ptr @H5O_init_g, align 1, !tbaa !3, !range !7
  %.pre36 = load i8, ptr @H5_libterm_g, align 1, !range !7
  %.pre37 = trunc nuw i8 %.pre to i1
  %.pre38 = trunc nuw i8 %.pre36 to i1
  br label %20

16:                                               ; preds = %13
  store i8 0, ptr @H5O_init_g, align 1, !tbaa !3
  %17 = load i64, ptr @H5E_FUNC_g, align 8, !tbaa !10
  %18 = load i64, ptr @H5E_CANTINIT_g, align 8, !tbaa !10
  %19 = tail call i32 (ptr, ptr, i32, i64, i64, ptr, ...) @H5E_printf_stack(ptr noundef nonnull @.str.3, ptr noundef nonnull @__func__.H5O_copy_header_map, i32 noundef 811, i64 noundef %17, i64 noundef %18, ptr noundef nonnull @.str.11) #7
  br label %73

20:                                               ; preds = %._crit_edge, %6
  %.pre-phi39 = phi i1 [ %.pre38, %._crit_edge ], [ %11, %6 ]
  %.pre-phi = phi i1 [ %.pre37, %._crit_edge ], [ %9, %6 ]
  %21 = xor i1 %.pre-phi39, true
  %22 = select i1 %.pre-phi, i1 true, i1 %21
  br i1 %22, label %23, label %73, !prof !9

23:                                               ; preds = %20
  %24 = load ptr, ptr %0, align 8, !tbaa !18
  %25 = call i32 @H5F_get_fileno(ptr noundef %24, ptr noundef nonnull %7) #7
  %26 = getelementptr inbounds nuw i8, ptr %0, i64 8
  %27 = load i64, ptr %26, align 8, !tbaa !46
  %28 = getelementptr inbounds nuw i8, ptr %7, i64 8
  store i64 %27, ptr %28, align 8, !tbaa !47
  %29 = getelementptr inbounds nuw i8, ptr %2, i64 24
  %30 = load ptr, ptr %29, align 8, !tbaa !44
  %31 = call ptr @H5SL_search(ptr noundef %30, ptr noundef nonnull %7) #7
  %32 = icmp eq ptr %31, null
  br i1 %32, label %33, label %49

33:                                               ; preds = %23
  br i1 %3, label %34, label %.thread

34:                                               ; preds = %33
  %35 = getelementptr inbounds nuw i8, ptr %2, i64 16
  %36 = load i32, ptr %35, align 8, !tbaa !30
  %37 = add nsw i32 %36, 1
  store i32 %37, ptr %35, align 8, !tbaa !30
  %38 = call fastcc i32 @H5O__copy_header_real(ptr noundef nonnull %0, ptr noundef %1, ptr noundef nonnull %2, ptr noundef %4, ptr noundef %5)
  %39 = icmp slt i32 %38, 0
  br i1 %39, label %42, label %46

.thread:                                          ; preds = %33
  %40 = call fastcc i32 @H5O__copy_header_real(ptr noundef nonnull %0, ptr noundef %1, ptr noundef nonnull %2, ptr noundef %4, ptr noundef %5)
  %41 = icmp slt i32 %40, 0
  br i1 %41, label %42, label %.thread31

42:                                               ; preds = %.thread, %34
  %43 = load i64, ptr @H5E_OHDR_g, align 8, !tbaa !10
  %44 = load i64, ptr @H5E_CANTCOPY_g, align 8, !tbaa !10
  %45 = call i32 (ptr, ptr, i32, i64, i64, ptr, ...) @H5E_printf_stack(ptr noundef nonnull @.str.3, ptr noundef nonnull @__func__.H5O_copy_header_map, i32 noundef 838, i64 noundef %43, i64 noundef %44, ptr noundef nonnull @.str.8) #7
  br label %73

46:                                               ; preds = %34
  %47 = load i32, ptr %35, align 8, !tbaa !30
  %48 = add nsw i32 %47, -1
  store i32 %48, ptr %35, align 8, !tbaa !30
  br label %.thread31

49:                                               ; preds = %23
  %50 = getelementptr inbounds nuw i8, ptr %31, i64 16
  %51 = load i64, ptr %50, align 8, !tbaa !49
  %52 = getelementptr inbounds nuw i8, ptr %1, i64 8
  store i64 %51, ptr %52, align 8, !tbaa !46
  %.not = icmp eq ptr %4, null
  br i1 %.not, label %59, label %53

53:                                               ; preds = %49
  %54 = getelementptr inbounds nuw i8, ptr %31, i64 40
  %55 = load ptr, ptr %54, align 8, !tbaa !52
  %56 = load i32, ptr %55, align 8, !tbaa !53
  store i32 %56, ptr %4, align 4, !tbaa !23
  %57 = getelementptr inbounds nuw i8, ptr %31, i64 48
  %58 = load ptr, ptr %57, align 8, !tbaa !56
  store ptr %58, ptr %5, align 8, !tbaa !57
  br label %59

59:                                               ; preds = %53, %49
  %60 = getelementptr inbounds nuw i8, ptr %31, i64 24
  %61 = load i8, ptr %60, align 8, !tbaa !58, !range !7, !noundef !8
  %62 = trunc nuw i8 %61 to i1
  br i1 %62, label %63, label %.thread31

63:                                               ; preds = %59
  %64 = getelementptr inbounds nuw i8, ptr %31, i64 32
  %65 = load i64, ptr %64, align 8, !tbaa !59
  %66 = add i64 %65, 1
  store i64 %66, ptr %64, align 8, !tbaa !59
  br label %73

.thread31:                                        ; preds = %.thread, %46, %59
  %.1.ph = phi i32 [ 0, %59 ], [ 1, %46 ], [ 1, %.thread ]
  %67 = call i32 @H5O_link(ptr noundef %1, i32 noundef 1) #7
  %68 = icmp slt i32 %67, 0
  br i1 %68, label %69, label %73

69:                                               ; preds = %.thread31
  %70 = load i64, ptr @H5E_OHDR_g, align 8, !tbaa !10
  %71 = load i64, ptr @H5E_CANTINIT_g, align 8, !tbaa !10
  %72 = call i32 (ptr, ptr, i32, i64, i64, ptr, ...) @H5E_printf_stack(ptr noundef nonnull @.str.3, ptr noundef nonnull @__func__.H5O_copy_header_map, i32 noundef 877, i64 noundef %70, i64 noundef %71, ptr noundef nonnull @.str.12) #7
  br label %73

73:                                               ; preds = %63, %16, %42, %69, %.thread31, %20
  %.0 = phi i32 [ -1, %16 ], [ -1, %42 ], [ -1, %69 ], [ %.1.ph, %.thread31 ], [ 0, %63 ], [ 0, %20 ]
  call void @llvm.lifetime.end.p0(i64 16, ptr nonnull %7) #7
  ret i32 %.0
}